	.arch armv7-a
	.fpu softvfp
	.eabi_attribute 20, 1
	.eabi_attribute 21, 1
	.eabi_attribute 23, 3
	.eabi_attribute 24, 1
	.eabi_attribute 25, 1
	.eabi_attribute 26, 2
	.eabi_attribute 30, 2
	.eabi_attribute 18, 4
	.file	"hacc_export.c"
	.text
.Ltext0:
	.align	2
	.type	sp_hacc_internal.isra.0, %function
sp_hacc_internal.isra.0:
.LFB204:
	.file 1 "/alps/kernel/mediatek/platform/mt6582/kernel/drivers/masp/mach/hacc_export.c"
	.loc 1 83 0
	@ args = 8, pretend = 0, frame = 8
	@ frame_needed = 1, uses_anonymous_args = 0
.LVL0:
	mov	ip, sp
.LCFI0:
	stmfd	sp!, {r4, r5, r6, r7, fp, ip, lr, pc}
.LCFI1:
	sub	fp, ip, #4
.LCFI2:
	sub	sp, sp, #8
.LCFI3:
.LVL1:
	.loc 1 90 0
	cmp	r3, #1
	.loc 1 83 0
	mov	r5, r3
	mov	r4, r0
	mov	r6, r1
	ldrb	r7, [fp, #8]	@ zero_extendqisi2
	.loc 1 90 0
	beq	.L17
.LVL2:
.L2:
	.loc 1 105 0
	cmp	r2, #1
	beq	.L6
	bcs	.L18
	.loc 1 111 0
	adds	r0, r7, #0
	ldr	r1, .L21
	movne	r0, #1
.L15:
	.loc 1 122 0
	bl	HACC_V3_Init
	.loc 1 124 0
	mov	r0, r4
	mov	r1, r6
	mov	r2, r4
	bl	HACC_V3_Run
	.loc 1 126 0
	bl	HACC_V3_Terminate
	.loc 1 159 0
	cmp	r5, #1
	beq	.L19
.L9:
	.loc 1 177 0
	mov	r0, r4
	sub	sp, fp, #28
	ldmfd	sp, {r4, r5, r6, r7, fp, sp, pc}
.L18:
	.loc 1 105 0
	cmp	r2, #2
	.loc 1 152 0
	movwne	r2, #24588
	.loc 1 105 0
	beq	.L20
.L4:
.LVL3:
	.loc 1 167 0
	cmp	r5, #1
	beq	.L3
.LVL4:
.L10:
	.loc 1 172 0 discriminator 1
	ldr	r1, .L21+4
	ldr	r0, .L21+8
	bl	printk
	.loc 1 174 0 discriminator 1
#APP
@ 174 "/alps/kernel/mediatek/platform/mt6582/kernel/drivers/masp/mach/hacc_export.c" 1
	.word 0xe7f001f2
@ 0 "" 2
.L20:
	.loc 1 133 0
	ldr	r3, .L21+12
	ldrb	r3, [r3, #0]	@ zero_extendqisi2
	cmp	r3, #0
	beq	.L13
	.loc 1 140 0
	mov	r0, r2
	mov	r1, #32
	bl	hacc_set_key
.LVL5:
	.loc 1 142 0
	subs	r2, r0, #0
	bne	.L4
	.loc 1 145 0
	mov	r2, r4
	ldr	r0, [fp, #4]
.LVL6:
	mov	r1, r4
	bic	r3, r6, #127
	bl	hacc_do_aes
.LVL7:
	.loc 1 147 0
	subs	r2, r0, #0
	bne	.L4
	.loc 1 159 0
	cmp	r5, #1
	bne	.L9
.LVL8:
.L19:
	.loc 1 161 0
	bl	osal_hacc_unlock
	b	.L9
.L6:
	.loc 1 122 0
	adds	r0, r7, #0
	ldr	r1, .L21+16
	movne	r0, #1
	b	.L15
.LVL9:
.L17:
	.loc 1 93 0
	str	r2, [fp, #-32]
	bl	osal_hacc_lock
.LVL10:
	.loc 1 95 0
	ldr	r2, [fp, #-32]
	cmp	r0, #0
	beq	.L2
	.loc 1 97 0
	movw	r2, #24586
.LVL11:
.L3:
	.loc 1 169 0
	str	r2, [fp, #-32]
	bl	osal_hacc_unlock
	ldr	r2, [fp, #-32]
	b	.L10
.L13:
	.loc 1 135 0
	movw	r2, #24583
	b	.L4
.L22:
	.align	2
.L21:
	.word	.LANCHOR0
	.word	.LC1
	.word	.LC0
	.word	.LANCHOR1
	.word	.LANCHOR0+32
.LFE204:
	.size	sp_hacc_internal.isra.0, .-sp_hacc_internal.isra.0
	.align	2
	.global	masp_hal_sp_hacc_enc
	.type	masp_hal_sp_hacc_enc, %function
masp_hal_sp_hacc_enc:
.LFB200:
	.loc 1 183 0
	@ args = 4, pretend = 0, frame = 0
	@ frame_needed = 1, uses_anonymous_args = 0
.LVL12:
	mov	ip, sp
.LCFI4:
	stmfd	sp!, {fp, ip, lr, pc}
.LCFI5:
	sub	fp, ip, #4
.LCFI6:
	sub	sp, sp, #8
.LCFI7:
	.loc 1 184 0
	mov	r2, r3
.LVL13:
	mov	r3, #1
.LVL14:
	str	r3, [sp, #0]
	str	r3, [sp, #4]
	ldrb	r3, [fp, #4]	@ zero_extendqisi2
	bl	sp_hacc_internal.isra.0
.LVL15:
	.loc 1 185 0
	sub	sp, fp, #12
	ldmfd	sp, {fp, sp, pc}
.LFE200:
	.size	masp_hal_sp_hacc_enc, .-masp_hal_sp_hacc_enc
	.align	2
	.global	masp_hal_sp_hacc_dec
	.type	masp_hal_sp_hacc_dec, %function
masp_hal_sp_hacc_dec:
.LFB201:
	.loc 1 192 0
	@ args = 4, pretend = 0, frame = 0
	@ frame_needed = 1, uses_anonymous_args = 0
.LVL16:
	mov	ip, sp
.LCFI8:
	stmfd	sp!, {fp, ip, lr, pc}
.LCFI9:
	sub	fp, ip, #4
.LCFI10:
	sub	sp, sp, #8
.LCFI11:
	.loc 1 193 0
	mov	r2, r3
.LVL17:
	mov	r3, #0
.LVL18:
	str	r3, [sp, #0]
	str	r3, [sp, #4]
	ldrb	r3, [fp, #4]	@ zero_extendqisi2
	bl	sp_hacc_internal.isra.0
.LVL19:
	.loc 1 194 0
	sub	sp, fp, #12
	ldmfd	sp, {fp, sp, pc}
.LFE201:
	.size	masp_hal_sp_hacc_dec, .-masp_hal_sp_hacc_dec
	.align	2
	.global	masp_hal_sp_hacc_blk_sz
	.type	masp_hal_sp_hacc_blk_sz, %function
masp_hal_sp_hacc_blk_sz:
.LFB202:
	.loc 1 200 0
	@ args = 0, pretend = 0, frame = 0
	@ frame_needed = 1, uses_anonymous_args = 0
	mov	ip, sp
.LCFI12:
	stmfd	sp!, {fp, ip, lr, pc}
.LCFI13:
	sub	fp, ip, #4
.LCFI14:
	.loc 1 202 0
	mov	r0, #16
	ldmfd	sp, {fp, sp, pc}
.LFE202:
	.size	masp_hal_sp_hacc_blk_sz, .-masp_hal_sp_hacc_blk_sz
	.align	2
	.global	masp_hal_sp_hacc_init
	.type	masp_hal_sp_hacc_init, %function
masp_hal_sp_hacc_init:
.LFB203:
	.loc 1 208 0
	@ args = 0, pretend = 0, frame = 40
	@ frame_needed = 1, uses_anonymous_args = 0
.LVL20:
	mov	ip, sp
.LCFI15:
	stmfd	sp!, {fp, ip, lr, pc}
.LCFI16:
	sub	fp, ip, #4
.LCFI17:
	sub	sp, sp, #48
.LCFI18:
.LVL21:
	.loc 1 212 0
	cmp	r1, #16
	.loc 1 214 0
	movwne	r0, #24580
.LVL22:
	.loc 1 212 0
	beq	.L31
.LVL23:
.L27:
	.loc 1 227 0
	sub	sp, fp, #12
	ldmfd	sp, {fp, sp, pc}
.LVL24:
.L31:
	.loc 1 217 0
	sub	r1, fp, #12
.LVL25:
	.loc 1 218 0
	mov	r3, #0
	.loc 1 217 0
	mov	r2, #32
	str	r2, [fp, #-48]
.LVL26:
.L28:
	.loc 1 207 0
	sub	ip, fp, #48
	.loc 1 220 0
	ldrb	r2, [r0, r3]	@ zero_extendqisi2
	.loc 1 207 0
	add	lr, ip, r3
	.loc 1 218 0 discriminator 2
	add	r3, r3, #1
.LVL27:
	.loc 1 218 0 is_stmt 0 discriminator 1
	cmp	r3, #16
	.loc 1 221 0 is_stmt 1
	add	ip, r2, #1
	.loc 1 220 0
	strb	r2, [lr, #4]
	.loc 1 221 0
	strb	ip, [r1, #-1]!
	.loc 1 218 0 discriminator 1
	bne	.L28
	.loc 1 224 0 discriminator 1
	ldrb	ip, [fp, #-41]	@ zero_extendqisi2
	ldrb	r1, [fp, #-44]	@ zero_extendqisi2
	ldrb	r2, [fp, #-43]	@ zero_extendqisi2
	ldrb	r3, [fp, #-42]	@ zero_extendqisi2
.LVL28:
	ldr	r0, .L32
	str	ip, [sp, #0]
	bl	printk
	.loc 1 226 0
	sub	r0, fp, #48
	bl	hacc_init
	b	.L27
.L33:
	.align	2
.L32:
	.word	.LC2
.LFE203:
	.size	masp_hal_sp_hacc_init, .-masp_hal_sp_hacc_init
	.global	bHACC_SWKeyInit
	.global	bHACC_HWWrapKeyInit
	.section	.rodata
	.align	2
.LANCHOR0 = . + 0
	.type	g_HACC_CFG_1, %object
	.size	g_HACC_CFG_1, 32
g_HACC_CFG_1:
	.word	-1630272512
	.word	15238305
	.word	-470776899
	.word	793669002
	.word	-8155556
	.word	-381640477
	.word	-1924272954
	.word	1174145417
	.type	g_HACC_CFG_2, %object
	.size	g_HACC_CFG_2, 32
g_HACC_CFG_2:
	.word	-1437324070
	.word	1431445780
	.word	-470776899
	.word	1431445780
	.word	-1437324070
	.word	-1437324070
	.word	1431445780
	.word	-1437324070
	.section	.rodata.str1.4,"aMS",%progbits,1
	.align	2
.LC0:
	.ascii	"[%s] HACC Fail (0x%x)\012\000"
	.space	1
.LC1:
	.ascii	"ASF\000"
.LC2:
	.ascii	"0x%x,0x%x,0x%x,0x%x\012\000"
	.bss
.LANCHOR1 = . + 0
	.type	bHACC_HWWrapKeyInit, %object
	.size	bHACC_HWWrapKeyInit, 1
bHACC_HWWrapKeyInit:
	.space	1
	.type	bHACC_SWKeyInit, %object
	.size	bHACC_SWKeyInit, 1
bHACC_SWKeyInit:
	.space	1
	.section	.debug_frame,"",%progbits
.Lframe0:
	.4byte	.LECIE0-.LSCIE0
.LSCIE0:
	.4byte	0xffffffff
	.byte	0x1
	.ascii	"\000"
	.uleb128 0x1
	.sleb128 -4
	.byte	0xe
	.byte	0xc
	.uleb128 0xd
	.uleb128 0
	.align	2
.LECIE0:
.LSFDE0:
	.4byte	.LEFDE0-.LASFDE0
.LASFDE0:
	.4byte	.Lframe0
	.4byte	.LFB204
	.4byte	.LFE204-.LFB204
	.byte	0x4
	.4byte	.LCFI0-.LFB204
	.byte	0xd
	.uleb128 0xc
	.byte	0x4
	.4byte	.LCFI1-.LCFI0
	.byte	0x8e
	.uleb128 0x2
	.byte	0x8d
	.uleb128 0x3
	.byte	0x8b
	.uleb128 0x4
	.byte	0x87
	.uleb128 0x5
	.byte	0x86
	.uleb128 0x6
	.byte	0x85
	.uleb128 0x7
	.byte	0x84
	.uleb128 0x8
	.byte	0x4
	.4byte	.LCFI2-.LCFI1
	.byte	0xc
	.uleb128 0xb
	.uleb128 0x4
	.align	2
.LEFDE0:
.LSFDE2:
	.4byte	.LEFDE2-.LASFDE2
.LASFDE2:
	.4byte	.Lframe0
	.4byte	.LFB200
	.4byte	.LFE200-.LFB200
	.byte	0x4
	.4byte	.LCFI4-.LFB200
	.byte	0xd
	.uleb128 0xc
	.byte	0x4
	.4byte	.LCFI5-.LCFI4
	.byte	0x8e
	.uleb128 0x2
	.byte	0x8d
	.uleb128 0x3
	.byte	0x8b
	.uleb128 0x4
	.byte	0x4
	.4byte	.LCFI6-.LCFI5
	.byte	0xc
	.uleb128 0xb
	.uleb128 0x4
	.align	2
.LEFDE2:
.LSFDE4:
	.4byte	.LEFDE4-.LASFDE4
.LASFDE4:
	.4byte	.Lframe0
	.4byte	.LFB201
	.4byte	.LFE201-.LFB201
	.byte	0x4
	.4byte	.LCFI8-.LFB201
	.byte	0xd
	.uleb128 0xc
	.byte	0x4
	.4byte	.LCFI9-.LCFI8
	.byte	0x8e
	.uleb128 0x2
	.byte	0x8d
	.uleb128 0x3
	.byte	0x8b
	.uleb128 0x4
	.byte	0x4
	.4byte	.LCFI10-.LCFI9
	.byte	0xc
	.uleb128 0xb
	.uleb128 0x4
	.align	2
.LEFDE4:
.LSFDE6:
	.4byte	.LEFDE6-.LASFDE6
.LASFDE6:
	.4byte	.Lframe0
	.4byte	.LFB202
	.4byte	.LFE202-.LFB202
	.byte	0x4
	.4byte	.LCFI12-.LFB202
	.byte	0xd
	.uleb128 0xc
	.byte	0x4
	.4byte	.LCFI13-.LCFI12
	.byte	0x8e
	.uleb128 0x2
	.byte	0x8d
	.uleb128 0x3
	.byte	0x8b
	.uleb128 0x4
	.byte	0x4
	.4byte	.LCFI14-.LCFI13
	.byte	0xc
	.uleb128 0xb
	.uleb128 0x4
	.align	2
.LEFDE6:
.LSFDE8:
	.4byte	.LEFDE8-.LASFDE8
.LASFDE8:
	.4byte	.Lframe0
	.4byte	.LFB203
	.4byte	.LFE203-.LFB203
	.byte	0x4
	.4byte	.LCFI15-.LFB203
	.byte	0xd
	.uleb128 0xc
	.byte	0x4
	.4byte	.LCFI16-.LCFI15
	.byte	0x8e
	.uleb128 0x2
	.byte	0x8d
	.uleb128 0x3
	.byte	0x8b
	.uleb128 0x4
	.byte	0x4
	.4byte	.LCFI17-.LCFI16
	.byte	0xc
	.uleb128 0xb
	.uleb128 0x4
	.align	2
.LEFDE8:
	.text
.Letext0:
	.file 2 "/alps/kernel/../mediatek/platform/mt6582/kernel/core/include/mach/mt_typedefs.h"
	.file 3 "/alps/kernel/../mediatek/kernel/include/mach/mt_sec_hal.h"
	.file 4 "/alps/kernel/mediatek/platform/mt6582/kernel/drivers/masp/asf/asf_inc/sec_typedef.h"
	.file 5 "/alps/kernel/mediatek/platform/mt6582/kernel/drivers/masp/mach/hacc_mach.h"
	.file 6 "/alps/kernel/arch/arm/include/asm/hwcap.h"
	.file 7 "/alps/kernel/include/linux/printk.h"
	.file 8 "/alps/kernel/include/linux/kernel.h"
	.section	.note.GNU-stack,"",%progbits
