	.arch armv7-a
	.fpu softvfp
	.eabi_attribute 20, 1
	.eabi_attribute 21, 1
	.eabi_attribute 23, 3
	.eabi_attribute 24, 1
	.eabi_attribute 25, 1
	.eabi_attribute 26, 2
	.eabi_attribute 30, 2
	.eabi_attribute 18, 4
	.file	"hacc_sk.c"
	.text
.Ltext0:
	.align	2
	.global	hacc_set_key
	.type	hacc_set_key, %function
hacc_set_key:
.LFB201:
	.file 1 "/alps/kernel/mediatek/platform/mt6582/kernel/drivers/masp/mach/hacc_sk.c"
	.loc 1 141 0
	@ args = 0, pretend = 0, frame = 0
	@ frame_needed = 1, uses_anonymous_args = 0
.LVL0:
	mov	ip, sp
.LCFI0:
	stmfd	sp!, {r4, r5, fp, ip, lr, pc}
.LCFI1:
	sub	fp, ip, #4
.LCFI2:
.LVL1:
	.loc 1 146 0
	cmp	r1, #24
	beq	.L11
	cmp	r1, #32
	beq	.L5
	cmp	r1, #16
	.loc 1 149 0
	moveq	r4, #0
	.loc 1 146 0
	beq	.L4
	.loc 1 158 0
	movw	r0, #24578
.LVL2:
	.loc 1 198 0
	ldmfd	sp, {r4, r5, fp, sp, pc}
.LVL3:
.L11:
	.loc 1 152 0
	mov	r4, #16
.LVL4:
.L4:
	.loc 1 161 0
	ldr	ip, .L16
	.loc 1 164 0
	mov	r2, #40960
	movt	r2, 61440
	.loc 1 169 0
	mov	r3, #0
	.loc 1 172 0
	cmp	r0, #1
	.loc 1 161 0
	str	r1, [ip, #16]
	.loc 1 164 0
	ldr	r1, [r2, #4]
.LVL5:
	.loc 1 176 0
	moveq	r0, r3
.LVL6:
	.loc 1 164 0
	bic	r1, r1, #48
	str	r1, [r2, #4]
	.loc 1 165 0
	ldr	r1, [r2, #4]
	orr	r1, r4, r1
	str	r1, [r2, #4]
.LVL7:
	.loc 1 169 0
	str	r3, [r2, #32]
.LVL8:
	str	r3, [r2, #36]
.LVL9:
	str	r3, [r2, #40]
.LVL10:
	str	r3, [r2, #44]
.LVL11:
	str	r3, [r2, #48]
.LVL12:
	str	r3, [r2, #52]
.LVL13:
	str	r3, [r2, #56]
.LVL14:
	str	r3, [r2, #60]
.LVL15:
	.loc 1 175 0
	ldr	r1, [r2, #12]
	orreq	r3, r1, #16
	streq	r3, [r2, #12]
	.loc 1 172 0
	ldmeqfd	sp, {r4, r5, fp, sp, pc}
.LVL16:
	.loc 1 187 0
	cmp	r0, #2
	movw	r3, #40992
	.loc 1 190 0 discriminator 1
	movw	r5, #41024
	.loc 1 187 0
	addeq	r0, ip, #52
.LVL17:
	addne	r0, ip, #20
	movt	r3, 61440
	.loc 1 190 0 discriminator 1
	movt	r5, 61440
	.loc 1 187 0
	bic	r1, r1, #16
	str	r1, [r2, #12]
.LVL18:
.L9:
	.loc 1 192 0
	ldrb	r2, [r0, #1]	@ zero_extendqisi2
	ldrb	r4, [r0, #0]	@ zero_extendqisi2
	.loc 1 193 0
	ldrb	ip, [r0, #3]	@ zero_extendqisi2
	ldrb	r1, [r0, #2]	@ zero_extendqisi2
	.loc 1 192 0
	mov	r2, r2, asl #16
	orr	r2, r2, r4, asl #24
	.loc 1 194 0
	add	r0, r0, #4
	.loc 1 192 0
	orr	r2, r2, ip
	.loc 1 193 0
	orr	r2, r2, r1, asl #8
.LVL19:
	.loc 1 194 0
	str	r2, [r3], #4
	.loc 1 190 0 discriminator 1
	cmp	r3, r5
	bne	.L9
	.loc 1 197 0
	mov	r0, #0
	ldmfd	sp, {r4, r5, fp, sp, pc}
.LVL20:
.L5:
	.loc 1 155 0
	mov	r4, r1
	.loc 1 156 0
	b	.L4
.L17:
	.align	2
.L16:
	.word	.LANCHOR0
.LFE201:
	.size	hacc_set_key, .-hacc_set_key
	.align	2
	.global	hacc_do_aes
	.type	hacc_do_aes, %function
hacc_do_aes:
.LFB202:
	.loc 1 201 0
	@ args = 0, pretend = 0, frame = 0
	@ frame_needed = 1, uses_anonymous_args = 0
.LVL21:
	mov	ip, sp
.LCFI3:
	stmfd	sp!, {r3, r4, fp, ip, lr, pc}
.LCFI4:
	sub	fp, ip, #4
.LCFI5:
	.loc 1 206 0
	tst	r3, #15
	bne	.L28
.LVL22:
	.loc 1 215 0
	mov	ip, #40960
	movt	ip, 61440
	.loc 1 220 0
	ldr	r4, .L29
	.loc 1 223 0
	cmp	r0, #1
	.loc 1 215 0
	ldr	r0, [ip, #8]
.LVL23:
	orr	r0, r0, #2
	str	r0, [ip, #8]
.LVL24:
	.loc 1 220 0
	ldr	r0, [r4, #0]
	str	r0, [ip, #64]
.LVL25:
	ldr	r0, [r4, #4]
	str	r0, [ip, #68]
.LVL26:
	ldr	r0, [r4, #8]
	str	r0, [ip, #72]
.LVL27:
	ldr	r0, [r4, #12]
	str	r0, [ip, #76]
.LVL28:
	.loc 1 225 0
	ldr	r0, [ip, #4]
	orreq	r0, r0, #1
	.loc 1 229 0
	bicne	r0, r0, #1
	str	r0, [ip, #4]
	.loc 1 239 0
	mov	ip, #40960
	movt	ip, 61440
	.loc 1 245 0 discriminator 1
	mov	r4, ip
.LVL29:
.L24:
	.loc 1 239 0
	ldr	r0, [r1, #0]
	str	r0, [ip, #16]
.LVL30:
	ldr	r0, [r1, #4]
	str	r0, [ip, #20]
.LVL31:
	ldr	r0, [r1, #8]
	str	r0, [ip, #24]
.LVL32:
	ldr	r0, [r1, #12]
	add	r1, r1, #16
.LVL33:
	str	r0, [ip, #28]
.LVL34:
	.loc 1 242 0
	ldr	r0, [ip, #8]
	orr	r0, r0, #1
	str	r0, [ip, #8]
.L23:
	.loc 1 245 0 discriminator 1
	ldr	r0, [ip, #8]
	tst	r0, #32768
	beq	.L23
	.loc 1 249 0
	ldr	r0, [r4, #80]
	.loc 1 251 0
	cmp	r3, #0
	.loc 1 249 0
	str	r0, [r2, #0]
.LVL35:
	ldr	r0, [r4, #84]
	str	r0, [r2, #4]
.LVL36:
	ldr	r0, [r4, #88]
	str	r0, [r2, #8]
.LVL37:
	ldr	r0, [r4, #92]
	str	r0, [r2, #12]
.LVL38:
	add	r2, r2, #16
.LVL39:
	.loc 1 251 0
	beq	.L25
.LVL40:
	.loc 1 256 0
	subs	r3, r3, #16
.LVL41:
	bne	.L24
	.loc 1 260 0
	mov	r0, r3
	ldmfd	sp, {r3, r4, fp, sp, pc}
.L25:
.L20:
	mov	r0, r3
	.loc 1 261 0
	ldmfd	sp, {r3, r4, fp, sp, pc}
.LVL42:
.L28:
	.loc 1 208 0
	mov	r2, r3
.LVL43:
	ldr	r0, .L29+4
.LVL44:
	ldr	r1, .L29+8
.LVL45:
	mov	r3, #16
.LVL46:
	bl	printk
.LVL47:
	.loc 1 209 0
	movw	r0, #24579
	ldmfd	sp, {r3, r4, fp, sp, pc}
.L30:
	.align	2
.L29:
	.word	.LANCHOR0
	.word	.LC0
	.word	.LC1
.LFE202:
	.size	hacc_do_aes, .-hacc_do_aes
	.align	2
	.global	hacc_deinit
	.type	hacc_deinit, %function
hacc_deinit:
.LFB203:
	.loc 1 264 0
	@ args = 0, pretend = 0, frame = 0
	@ frame_needed = 1, uses_anonymous_args = 0
	mov	ip, sp
.LCFI6:
	stmfd	sp!, {fp, ip, lr, pc}
.LCFI7:
	sub	fp, ip, #4
.LCFI8:
.LVL48:
	.loc 1 268 0
	mov	r3, #40960
	movt	r3, 61440
	.loc 1 271 0
	mov	r0, #0
	.loc 1 268 0
	ldr	r2, [r3, #8]
	orr	r2, r2, #2
	str	r2, [r3, #8]
	.loc 1 271 0
	ldmfd	sp, {fp, sp, pc}
.LFE203:
	.size	hacc_deinit, .-hacc_deinit
	.align	2
	.global	hacc_init
	.type	hacc_init, %function
hacc_init:
.LFB204:
	.loc 1 274 0
	@ args = 0, pretend = 0, frame = 0
	@ frame_needed = 1, uses_anonymous_args = 0
.LVL49:
	mov	ip, sp
.LCFI9:
	stmfd	sp!, {r4, r5, fp, ip, lr, pc}
.LCFI10:
	sub	fp, ip, #4
.LCFI11:
.LVL50:
.LBB10:
.LBB11:
	.loc 1 268 0
	mov	r3, #40960
	movt	r3, 61440
.LBE11:
.LBE10:
.LBB14:
	.loc 1 292 0
	ldr	r4, .L37
.LBE14:
	.loc 1 274 0
	mov	r5, r0
.LBB15:
.LBB12:
	.loc 1 268 0
	ldr	r2, [r3, #8]
.LBE12:
.LBE15:
.LBB16:
	.loc 1 292 0 discriminator 3
	mov	r1, #84
.LBE16:
.LBB17:
.LBB13:
	.loc 1 268 0
	orr	r2, r2, #2
	str	r2, [r3, #8]
.LBE13:
.LBE17:
	.loc 1 285 0
	ldr	r2, [r3, #8]
.LBB18:
	.loc 1 292 0 discriminator 3
	mov	r0, r4
.LVL51:
.LBE18:
	.loc 1 285 0
	orr	r2, r2, #2
	str	r2, [r3, #8]
	.loc 1 288 0
	ldr	r2, [r3, #8]
	bic	r2, r2, #4096
	bic	r2, r2, #2
	str	r2, [r3, #8]
	.loc 1 289 0
	ldr	r2, [r3, #8]
	orr	r2, r2, #2
	str	r2, [r3, #8]
.LVL52:
.LBB19:
	.loc 1 292 0 discriminator 3
	bl	__memzero
.LBE19:
	.loc 1 294 0 discriminator 1
	ldr	r3, [r5, #0]
	cmp	r3, #0
	beq	.L33
	add	r2, r4, #19
	.loc 1 294 0 is_stmt 0
	mov	r3, #0
.LVL53:
.L34:
	.loc 1 273 0 is_stmt 1
	add	r1, r5, r3
	.loc 1 294 0 discriminator 2
	add	r3, r3, #1
.LVL54:
	.loc 1 296 0
	ldrb	r1, [r1, #4]	@ zero_extendqisi2
	strb	r1, [r2, #1]!
	.loc 1 294 0 discriminator 1
	ldr	r1, [r5, #0]
	cmp	r1, r3
	bhi	.L34
.LVL55:
.L33:
.LBB20:
.LBB21:
	.loc 1 122 0
	mov	ip, #40960
	movt	ip, 61440
.LBE21:
.LBE20:
	.loc 1 301 0
	movw	r3, #12887
	.loc 1 302 0
	movw	r2, #21522
	.loc 1 301 0
	movt	r3, 23130
	.loc 1 302 0
	movt	r2, 26263
	.loc 1 301 0
	str	r3, [r4, #0]
.LVL56:
	.loc 1 315 0
	mov	r0, #1
	.loc 1 302 0
	str	r2, [r4, #4]
.LVL57:
	.loc 1 315 0
	mov	r1, #16
	.loc 1 303 0
	str	r2, [r4, #8]
.LVL58:
	.loc 1 304 0
	str	r3, [r4, #12]
.LVL59:
.LBB23:
.LBB22:
	.loc 1 122 0
	ldr	r3, [ip, #4]
	bic	r3, r3, #2
	str	r3, [ip, #4]
	.loc 1 131 0
	ldr	r3, [ip, #4]
	orr	r3, r3, #2
	str	r3, [ip, #4]
.LBE22:
.LBE23:
	.loc 1 315 0
	bl	hacc_set_key
.LVL60:
	.loc 1 316 0
	cmp	r0, #0
	ldmnefd	sp, {r4, r5, fp, sp, pc}
	.loc 1 319 0
	ldr	r1, .L37+4
	mov	r3, #32
	mov	r0, #1
.LVL61:
	add	r2, r1, r3
	bl	hacc_do_aes
.LVL62:
	.loc 1 320 0
	cmp	r0, #0
	ldmnefd	sp, {r4, r5, fp, sp, pc}
	.loc 1 323 0
	mov	r0, #2
.LVL63:
	mov	r1, #32
	bl	hacc_set_key
.LVL64:
	.loc 1 324 0
	cmp	r0, #0
	ldmnefd	sp, {r4, r5, fp, sp, pc}
.L35:
	.loc 1 330 0
	ldr	r2, .L37+8
	mov	r3, #1
	strb	r3, [r2, #0]
	.loc 1 333 0
	ldr	r2, .L37+12
	strb	r3, [r2, #0]
	.loc 1 338 0
	ldmfd	sp, {r4, r5, fp, sp, pc}
.L38:
	.align	2
.L37:
	.word	.LANCHOR0
	.word	.LANCHOR0+20
	.word	bHACC_HWWrapKeyInit
	.word	bHACC_SWKeyInit
.LFE204:
	.size	hacc_init, .-hacc_init
	.section	.rodata.str1.4,"aMS",%progbits,1
	.align	2
.LC0:
	.ascii	"[%s] size = %d is not %d bytes alignment\012\000"
	.space	2
.LC1:
	.ascii	"HACC\000"
	.bss
	.align	2
.LANCHOR0 = . + 0
	.type	hacc_ctx, %object
	.size	hacc_ctx, 84
hacc_ctx:
	.space	84
	.section	.debug_frame,"",%progbits
.Lframe0:
	.4byte	.LECIE0-.LSCIE0
.LSCIE0:
	.4byte	0xffffffff
	.byte	0x1
	.ascii	"\000"
	.uleb128 0x1
	.sleb128 -4
	.byte	0xe
	.byte	0xc
	.uleb128 0xd
	.uleb128 0
	.align	2
.LECIE0:
.LSFDE0:
	.4byte	.LEFDE0-.LASFDE0
.LASFDE0:
	.4byte	.Lframe0
	.4byte	.LFB201
	.4byte	.LFE201-.LFB201
	.byte	0x4
	.4byte	.LCFI0-.LFB201
	.byte	0xd
	.uleb128 0xc
	.byte	0x4
	.4byte	.LCFI1-.LCFI0
	.byte	0x8e
	.uleb128 0x2
	.byte	0x8d
	.uleb128 0x3
	.byte	0x8b
	.uleb128 0x4
	.byte	0x85
	.uleb128 0x5
	.byte	0x84
	.uleb128 0x6
	.byte	0x4
	.4byte	.LCFI2-.LCFI1
	.byte	0xc
	.uleb128 0xb
	.uleb128 0x4
	.align	2
.LEFDE0:
.LSFDE2:
	.4byte	.LEFDE2-.LASFDE2
.LASFDE2:
	.4byte	.Lframe0
	.4byte	.LFB202
	.4byte	.LFE202-.LFB202
	.byte	0x4
	.4byte	.LCFI3-.LFB202
	.byte	0xd
	.uleb128 0xc
	.byte	0x4
	.4byte	.LCFI4-.LCFI3
	.byte	0x8e
	.uleb128 0x2
	.byte	0x8d
	.uleb128 0x3
	.byte	0x8b
	.uleb128 0x4
	.byte	0x84
	.uleb128 0x5
	.byte	0x83
	.uleb128 0x6
	.byte	0x4
	.4byte	.LCFI5-.LCFI4
	.byte	0xc
	.uleb128 0xb
	.uleb128 0x4
	.align	2
.LEFDE2:
.LSFDE4:
	.4byte	.LEFDE4-.LASFDE4
.LASFDE4:
	.4byte	.Lframe0
	.4byte	.LFB203
	.4byte	.LFE203-.LFB203
	.byte	0x4
	.4byte	.LCFI6-.LFB203
	.byte	0xd
	.uleb128 0xc
	.byte	0x4
	.4byte	.LCFI7-.LCFI6
	.byte	0x8e
	.uleb128 0x2
	.byte	0x8d
	.uleb128 0x3
	.byte	0x8b
	.uleb128 0x4
	.byte	0x4
	.4byte	.LCFI8-.LCFI7
	.byte	0xc
	.uleb128 0xb
	.uleb128 0x4
	.align	2
.LEFDE4:
.LSFDE6:
	.4byte	.LEFDE6-.LASFDE6
.LASFDE6:
	.4byte	.Lframe0
	.4byte	.LFB204
	.4byte	.LFE204-.LFB204
	.byte	0x4
	.4byte	.LCFI9-.LFB204
	.byte	0xd
	.uleb128 0xc
	.byte	0x4
	.4byte	.LCFI10-.LCFI9
	.byte	0x8e
	.uleb128 0x2
	.byte	0x8d
	.uleb128 0x3
	.byte	0x8b
	.uleb128 0x4
	.byte	0x85
	.uleb128 0x5
	.byte	0x84
	.uleb128 0x6
	.byte	0x4
	.4byte	.LCFI11-.LCFI10
	.byte	0xc
	.uleb128 0xb
	.uleb128 0x4
	.align	2
.LEFDE6:
	.text
.Letext0:
	.file 2 "/alps/kernel/include/uapi/asm-generic/posix_types.h"
	.file 3 "/alps/kernel/include/linux/types.h"
	.file 4 "/alps/kernel/../mediatek/platform/mt6582/kernel/core/include/mach/mt_typedefs.h"
	.file 5 "/alps/kernel/mediatek/platform/mt6582/kernel/drivers/masp/mach/hacc_mach.h"
	.file 6 "/alps/kernel/arch/arm/include/asm/hwcap.h"
	.file 7 "/alps/kernel/include/linux/printk.h"
	.file 8 "/alps/kernel/include/linux/kernel.h"
	.section	.note.GNU-stack,"",%progbits
