	.arch armv7-a
	.fpu softvfp
	.eabi_attribute 20, 1
	.eabi_attribute 21, 1
	.eabi_attribute 23, 3
	.eabi_attribute 24, 1
	.eabi_attribute 25, 1
	.eabi_attribute 26, 2
	.eabi_attribute 30, 2
	.eabi_attribute 18, 4
	.file	"hacc_hk.c"
	.text
.Ltext0:
	.align	2
	.global	HACC_V3_Init
	.type	HACC_V3_Init, %function
HACC_V3_Init:
.LFB199:
	.file 1 "/alps/kernel/mediatek/platform/mt6582/kernel/drivers/masp/mach/hacc_hk.c"
	.loc 1 63 0
	@ args = 0, pretend = 0, frame = 0
	@ frame_needed = 1, uses_anonymous_args = 0
.LVL0:
	mov	ip, sp
.LCFI0:
	stmfd	sp!, {r3, r4, r5, r6, fp, ip, lr, pc}
.LCFI1:
	sub	fp, ip, #4
.LCFI2:
	.loc 1 63 0
	mov	r4, r1
	mov	r5, r0
	.loc 1 73 0
	bl	masp_hal_secure_algo_init
.LVL1:
	.loc 1 105 0
	mov	r3, #40960
	movt	r3, 61440
	mov	r2, #0
	.loc 1 111 0
	mov	r6, #2
	.loc 1 91 0
	cmp	r5, r2
	.loc 1 105 0
	str	r2, [r3, #32]
	.loc 1 136 0
	mov	r1, r3
	.loc 1 105 0
	str	r2, [r3, #36]
	.loc 1 91 0
	moveq	r5, r6
	.loc 1 105 0
	str	r2, [r3, #40]
	.loc 1 91 0
	movne	r5, #3
.LVL2:
	.loc 1 105 0
	str	r2, [r3, #44]
.LVL3:
	.loc 1 139 0
	mov	ip, #1
	.loc 1 105 0
	str	r2, [r3, #48]
.LVL4:
	str	r2, [r3, #52]
.LVL5:
	str	r2, [r3, #56]
.LVL6:
	str	r2, [r3, #60]
.LVL7:
	.loc 1 115 0
	mov	r2, #16
	.loc 1 111 0
	str	r6, [r3, #4]
	.loc 1 115 0
	str	r2, [r3, #12]
	.loc 1 117 0
	ldr	r2, [r3, #12]
	.loc 1 133 0
	ldr	r0, .L9
	.loc 1 117 0
	orr	r2, r2, #256
	str	r2, [r3, #12]
	.loc 1 120 0
	str	r6, [r3, #8]
.LVL8:
	.loc 1 62 0
	add	r6, r0, #48
	.loc 1 126 0
	ldr	r2, [r4, #0]
	str	r2, [r3, #64]
.LVL9:
	ldr	r2, [r4, #4]
	str	r2, [r3, #68]
.LVL10:
	ldr	r2, [r4, #8]
	str	r2, [r3, #72]
.LVL11:
	ldr	r2, [r4, #12]
	str	r2, [r3, #76]
.LVL12:
.L4:
	.loc 1 136 0
	ldr	r3, [r0, #0]
	str	r3, [r1, #16]
.LVL13:
	ldr	r3, [r0, #4]
	str	r3, [r1, #20]
.LVL14:
	ldr	r3, [r0, #8]
	str	r3, [r1, #24]
.LVL15:
	ldr	r3, [r0, #12]
	str	r3, [r1, #28]
.LVL16:
	.loc 1 139 0
	str	ip, [r1, #8]
.L3:
	.loc 1 141 0 discriminator 1
	ldr	r2, [r1, #8]
	mov	r3, #40960
	movt	r3, 61440
	tst	r2, #32768
	beq	.L3
	add	r0, r0, #16
	.loc 1 130 0 discriminator 1
	cmp	r0, r6
	bne	.L4
	.loc 1 150 0
	mov	r2, #2
	str	r2, [r3, #8]
.LVL17:
	.loc 1 156 0
	ldr	r2, [r4, #0]
	str	r2, [r3, #64]
.LVL18:
	ldr	r2, [r4, #4]
	str	r2, [r3, #68]
.LVL19:
	ldr	r2, [r4, #8]
	str	r2, [r3, #72]
.LVL20:
	ldr	r2, [r4, #12]
	str	r2, [r3, #76]
.LVL21:
	.loc 1 161 0
	mov	r2, #0
	.loc 1 160 0
	str	r5, [r3, #4]
	.loc 1 161 0
	str	r2, [r3, #12]
	.loc 1 162 0
	ldmfd	sp, {r3, r4, r5, r6, fp, sp, pc}
.L10:
	.align	2
.L9:
	.word	.LANCHOR0
.LFE199:
	.size	HACC_V3_Init, .-HACC_V3_Init
	.align	2
	.global	HACC_V3_Run
	.type	HACC_V3_Run, %function
HACC_V3_Run:
.LFB200:
	.loc 1 165 0
	@ args = 0, pretend = 0, frame = 0
	@ frame_needed = 1, uses_anonymous_args = 0
.LVL22:
	mov	ip, sp
.LCFI3:
	stmfd	sp!, {r4, r5, r6, r7, r8, fp, ip, lr, pc}
.LCFI4:
	sub	fp, ip, #4
.LCFI5:
.LVL23:
	.loc 1 172 0 discriminator 1
	cmp	r1, #0
.LVL24:
	ldmeqfd	sp, {r4, r5, r6, r7, r8, fp, sp, pc}
	.loc 1 177 0
	mov	ip, #40960
	movt	ip, 61440
	.loc 1 172 0 discriminator 1
	mov	r4, #0
	.loc 1 180 0
	mov	r7, #1
	.loc 1 182 0 discriminator 1
	mov	r6, ip
.LVL25:
.L12:
	.loc 1 177 0
	ldr	r8, [r0, r4]
	.loc 1 164 0
	add	r3, r0, r4
.LVL26:
	add	r5, r2, r4
	.loc 1 177 0
	str	r8, [ip, #16]
.LVL27:
	ldr	r8, [r3, #4]
	str	r8, [ip, #20]
.LVL28:
	ldr	r8, [r3, #8]
	str	r8, [ip, #24]
.LVL29:
	ldr	r3, [r3, #12]
	str	r3, [ip, #28]
.LVL30:
	.loc 1 180 0
	str	r7, [ip, #8]
.L14:
	.loc 1 182 0 discriminator 1
	ldr	r3, [ip, #8]
	tst	r3, #32768
	beq	.L14
.LVL31:
	.loc 1 186 0
	ldr	r3, [r6, #80]
	.loc 1 172 0
	add	r4, r4, #16
	.loc 1 172 0 is_stmt 0 discriminator 1
	cmp	r1, r4
	.loc 1 186 0 is_stmt 1
	str	r3, [r5, #0]
.LVL32:
	ldr	r3, [r6, #84]
	str	r3, [r5, #4]
.LVL33:
	ldr	r3, [r6, #88]
	str	r3, [r5, #8]
.LVL34:
	ldr	r3, [r6, #92]
	str	r3, [r5, #12]
.LVL35:
	.loc 1 172 0 discriminator 1
	bhi	.L12
	ldmfd	sp, {r4, r5, r6, r7, r8, fp, sp, pc}
.LFE200:
	.size	HACC_V3_Run, .-HACC_V3_Run
	.align	2
	.global	HACC_V3_Terminate
	.type	HACC_V3_Terminate, %function
HACC_V3_Terminate:
.LFB201:
	.loc 1 192 0
	@ args = 0, pretend = 0, frame = 0
	@ frame_needed = 1, uses_anonymous_args = 0
	mov	ip, sp
.LCFI6:
	stmfd	sp!, {fp, ip, lr, pc}
.LCFI7:
	sub	fp, ip, #4
.LCFI8:
	.loc 1 196 0
	mov	r3, #40960
	movt	r3, 61440
	.loc 1 204 0
	mov	r2, #0
	.loc 1 196 0
	mov	r1, #2
	str	r1, [r3, #8]
.LVL36:
	.loc 1 204 0
	str	r2, [r3, #32]
.LVL37:
	str	r2, [r3, #36]
.LVL38:
	str	r2, [r3, #40]
.LVL39:
	str	r2, [r3, #44]
.LVL40:
	str	r2, [r3, #48]
.LVL41:
	str	r2, [r3, #52]
.LVL42:
	str	r2, [r3, #56]
.LVL43:
	str	r2, [r3, #60]
.LVL44:
	.loc 1 207 0
	bl	masp_hal_secure_algo_deinit
	.loc 1 208 0
	ldmfd	sp, {fp, sp, pc}
.LFE201:
	.size	HACC_V3_Terminate, .-HACC_V3_Terminate
	.section	.rodata
	.align	2
.LANCHOR0 = . + 0
	.type	g_CFG_RANDOM_PATTERN, %object
	.size	g_CFG_RANDOM_PATTERN, 48
g_CFG_RANDOM_PATTERN:
	.word	759479152
	.word	-1488661977
	.word	-794196405
	.word	-2080390588
	.word	2127046251
	.word	1139281842
	.word	27669642
	.word	543685024
	.word	1414751237
	.word	-716790095
	.word	482602042
	.word	-566789501
	.section	.debug_frame,"",%progbits
.Lframe0:
	.4byte	.LECIE0-.LSCIE0
.LSCIE0:
	.4byte	0xffffffff
	.byte	0x1
	.ascii	"\000"
	.uleb128 0x1
	.sleb128 -4
	.byte	0xe
	.byte	0xc
	.uleb128 0xd
	.uleb128 0
	.align	2
.LECIE0:
.LSFDE0:
	.4byte	.LEFDE0-.LASFDE0
.LASFDE0:
	.4byte	.Lframe0
	.4byte	.LFB199
	.4byte	.LFE199-.LFB199
	.byte	0x4
	.4byte	.LCFI0-.LFB199
	.byte	0xd
	.uleb128 0xc
	.byte	0x4
	.4byte	.LCFI1-.LCFI0
	.byte	0x8e
	.uleb128 0x2
	.byte	0x8d
	.uleb128 0x3
	.byte	0x8b
	.uleb128 0x4
	.byte	0x86
	.uleb128 0x5
	.byte	0x85
	.uleb128 0x6
	.byte	0x84
	.uleb128 0x7
	.byte	0x83
	.uleb128 0x8
	.byte	0x4
	.4byte	.LCFI2-.LCFI1
	.byte	0xc
	.uleb128 0xb
	.uleb128 0x4
	.align	2
.LEFDE0:
.LSFDE2:
	.4byte	.LEFDE2-.LASFDE2
.LASFDE2:
	.4byte	.Lframe0
	.4byte	.LFB200
	.4byte	.LFE200-.LFB200
	.byte	0x4
	.4byte	.LCFI3-.LFB200
	.byte	0xd
	.uleb128 0xc
	.byte	0x4
	.4byte	.LCFI4-.LCFI3
	.byte	0x8e
	.uleb128 0x2
	.byte	0x8d
	.uleb128 0x3
	.byte	0x8b
	.uleb128 0x4
	.byte	0x88
	.uleb128 0x5
	.byte	0x87
	.uleb128 0x6
	.byte	0x86
	.uleb128 0x7
	.byte	0x85
	.uleb128 0x8
	.byte	0x84
	.uleb128 0x9
	.byte	0x4
	.4byte	.LCFI5-.LCFI4
	.byte	0xc
	.uleb128 0xb
	.uleb128 0x4
	.align	2
.LEFDE2:
.LSFDE4:
	.4byte	.LEFDE4-.LASFDE4
.LASFDE4:
	.4byte	.Lframe0
	.4byte	.LFB201
	.4byte	.LFE201-.LFB201
	.byte	0x4
	.4byte	.LCFI6-.LFB201
	.byte	0xd
	.uleb128 0xc
	.byte	0x4
	.4byte	.LCFI7-.LCFI6
	.byte	0x8e
	.uleb128 0x2
	.byte	0x8d
	.uleb128 0x3
	.byte	0x8b
	.uleb128 0x4
	.byte	0x4
	.4byte	.LCFI8-.LCFI7
	.byte	0xc
	.uleb128 0xb
	.uleb128 0x4
	.align	2
.LEFDE4:
	.text
.Letext0:
	.file 2 "/alps/kernel/arch/arm/include/asm/hwcap.h"
	.file 3 "/alps/kernel/include/linux/printk.h"
	.file 4 "/alps/kernel/include/linux/kernel.h"
	.file 5 "/alps/kernel/mediatek/platform/mt6582/kernel/drivers/masp/asf/asf_inc/sec_typedef.h"
	.section	.note.GNU-stack,"",%progbits
