	.cpu generic+fp+simd
	.file	"hacc_export.c"
	.text
.Ltext0:
	.cfi_sections	.debug_frame
	.align	2
	.type	sp_hacc_internal.isra.0, %function
sp_hacc_internal.isra.0:
.LFB449:
	.file 1 "dummy"
	.loc 1 89 0
	.cfi_startproc
.LVL0:
	stp	x29, x30, [sp, -64]!
	.cfi_def_cfa_offset 64
	.cfi_offset 29, -64
	.cfi_offset 30, -56
	add	x29, sp, 0
	.cfi_def_cfa_register 29
	stp	x19, x20, [sp,16]
	stp	x21, x22, [sp,32]
	.cfi_offset 19, -48
	.cfi_offset 20, -40
	.cfi_offset 21, -32
	.cfi_offset 22, -24
	.loc 1 89 0
	and	w20, w3, (1 << 8) - 1
.LVL1:
	mov	x19, x0
	.loc 1 96 0
	cmp	w20, 1
	.loc 1 89 0
	mov	w21, w1
	and	w22, w5, (1 << 8) - 1
.LVL2:
	.loc 1 96 0
	beq	.L24
	.loc 1 111 0
	cmp	w2, 3
	bls	.L25
	.loc 1 169 0
	mov	w0, 24588
.LVL3:
	b	.L12
.LVL4:
.L25:
	.loc 1 111 0
	adrp	x1, .L14
	add	x1, x1, :lo12:.L14
	ldrb	w0, [x1,w2,uxtw]
	adr	x1, .Lrtx14
	add	x0, x1, w0, sxtb #2
	br	x0
.Lrtx14:
	.section	.rodata
	.align	0
	.align	2
.L14:
	.byte	(.L5 - .Lrtx14) / 4
	.byte	(.L7 - .Lrtx14) / 4
	.byte	(.L8 - .Lrtx14) / 4
	.byte	(.L10 - .Lrtx14) / 4
	.text
.L8:
	.loc 1 139 0
	adrp	x0, .LANCHOR1
	str	x4, [x29,56]
	ldrb	w0, [x0,#:lo12:.LANCHOR1]
	cbz	w0, .L16
	.loc 1 146 0
	mov	w0, 2
	mov	w1, 32
	bl	hacc_set_key
.LVL5:
	.loc 1 148 0
	cbnz	w0, .L9
	.loc 1 151 0
	ldr	x4, [x29,56]
.LVL6:
	mov	x1, x19
	mov	x2, x19
	and	w3, w21, -128
	mov	w0, w4
.LVL7:
	bl	hacc_do_aes
.LVL8:
	.loc 1 153 0
	cbz	w0, .L6
.LVL9:
.L9:
	.loc 1 184 0
	cmp	w20, 1
	beq	.L3
.LVL10:
.L12:
	.loc 1 189 0 discriminator 1
	mov	w2, w0
.LVL11:
	adrp	x1, .LC1
	adrp	x0, .LC0
.LVL12:
	add	x1, x1, :lo12:.LC1
	add	x0, x0, :lo12:.LC0
	bl	printk
.LVL13:
	.loc 1 191 0 discriminator 1
	adrp	x3, .LANCHOR0
	adrp	x0, .LC2
	adrp	x1, .LC3
	add	x3, x3, :lo12:.LANCHOR0
	add	x0, x0, :lo12:.LC2
	add	x1, x1, :lo12:.LC3
	mov	w2, 191
	add	x3, x3, 96
	bl	printk
.LVL14:
	.loc 1 191 0 is_stmt 0 discriminator 2
	adrp	x0, .LC4
	add	x0, x0, :lo12:.LC4
	bl	panic
.LVL15:
.L7:
	.loc 1 128 0 is_stmt 1
	adrp	x1, .LANCHOR0
	cmp	w22, wzr
	add	x1, x1, :lo12:.LANCHOR0
	cset	w0, ne
	add	x1, x1, 32
.L21:
	.loc 1 161 0
	bl	HACC_V3_Init
.LVL16:
	.loc 1 163 0
	mov	x0, x19
	mov	w1, w21
	mov	x2, x19
	bl	HACC_V3_Run
.LVL17:
	.loc 1 165 0
	bl	HACC_V3_Terminate
.LVL18:
.L6:
	.loc 1 176 0
	cmp	w20, 1
	beq	.L26
	.loc 1 194 0
	mov	x0, x19
.LVL19:
	ldp	x19, x20, [sp,16]
	.cfi_remember_state
	.cfi_restore 20
	.cfi_restore 19
.LVL20:
	ldp	x21, x22, [sp,32]
	.cfi_restore 22
	.cfi_restore 21
.LVL21:
	ldp	x29, x30, [sp], 64
	.cfi_restore 30
	.cfi_restore 29
	.cfi_def_cfa 31, 0
	ret
.LVL22:
.L5:
	.cfi_restore_state
	.loc 1 117 0
	cmp	w22, wzr
	adrp	x1, .LANCHOR0
	cset	w0, ne
	add	x1, x1, :lo12:.LANCHOR0
	b	.L21
.L10:
	.loc 1 161 0
	adrp	x1, .LANCHOR0
	cmp	w22, wzr
	add	x1, x1, :lo12:.LANCHOR0
	cset	w0, ne
	add	x1, x1, 64
	b	.L21
.LVL23:
.L26:
	.loc 1 178 0
	bl	osal_hacc_unlock
.LVL24:
	.loc 1 194 0
	mov	x0, x19
	ldp	x19, x20, [sp,16]
	.cfi_remember_state
	.cfi_restore 19
	.cfi_restore 20
.LVL25:
	ldp	x21, x22, [sp,32]
	.cfi_restore 21
	.cfi_restore 22
.LVL26:
	ldp	x29, x30, [sp], 64
	.cfi_restore 29
	.cfi_restore 30
	.cfi_def_cfa 31, 0
	ret
.LVL27:
.L24:
	.cfi_restore_state
	stp	x4, x2, [x29,48]
	.loc 1 99 0
	bl	osal_hacc_lock
.LVL28:
	.loc 1 101 0
	ldr	x2, [x29,56]
.LVL29:
	ldr	x4, [x29,48]
.LVL30:
	cbnz	w0, .L27
	.loc 1 111 0
	cmp	w2, 3
	bls	.L28
	.loc 1 169 0
	mov	w0, 24588
.LVL31:
.L3:
	str	x0, [x29,56]
	.loc 1 186 0
	bl	osal_hacc_unlock
.LVL32:
	ldr	x0, [x29,56]
.LVL33:
	b	.L12
.LVL34:
.L28:
	.loc 1 111 0
	adrp	x0, .L13
	add	x0, x0, :lo12:.L13
	ldrb	w0, [x0,w2,uxtw]
	adr	x1, .Lrtx13
	add	x0, x1, w0, sxtb #2
	br	x0
.Lrtx13:
	.section	.rodata
	.align	0
	.align	2
.L13:
	.byte	(.L5 - .Lrtx13) / 4
	.byte	(.L7 - .Lrtx13) / 4
	.byte	(.L8 - .Lrtx13) / 4
	.byte	(.L10 - .Lrtx13) / 4
	.text
.L16:
	.loc 1 141 0
	mov	w0, 24583
.LVL35:
	b	.L9
.LVL36:
.L27:
	.loc 1 103 0
	mov	w0, 24586
.LVL37:
	b	.L3
	.cfi_endproc
.LFE449:
	.size	sp_hacc_internal.isra.0, .-sp_hacc_internal.isra.0
	.align	2
	.global	masp_hal_sp_hacc_enc
	.type	masp_hal_sp_hacc_enc, %function
masp_hal_sp_hacc_enc:
.LFB445:
	.loc 1 200 0
	.cfi_startproc
.LVL38:
	stp	x29, x30, [sp, -16]!
	.cfi_def_cfa_offset 16
	.cfi_offset 29, -16
	.cfi_offset 30, -8
	.loc 1 201 0
	mov	w2, w3
.LVL39:
	mov	w5, 1
	.loc 1 200 0
	add	x29, sp, 0
	.cfi_def_cfa_register 29
	.loc 1 201 0
	mov	w3, w4
.LVL40:
	mov	w4, 1
.LVL41:
	.loc 1 200 0
	.loc 1 201 0
	bl	sp_hacc_internal.isra.0
.LVL42:
	.loc 1 202 0
	ldp	x29, x30, [sp], 16
	.cfi_restore 30
	.cfi_restore 29
	.cfi_def_cfa 31, 0
	ret
	.cfi_endproc
.LFE445:
	.size	masp_hal_sp_hacc_enc, .-masp_hal_sp_hacc_enc
	.align	2
	.global	masp_hal_sp_hacc_dec
	.type	masp_hal_sp_hacc_dec, %function
masp_hal_sp_hacc_dec:
.LFB446:
	.loc 1 209 0
	.cfi_startproc
.LVL43:
	stp	x29, x30, [sp, -16]!
	.cfi_def_cfa_offset 16
	.cfi_offset 29, -16
	.cfi_offset 30, -8
	.loc 1 210 0
	mov	w2, w3
.LVL44:
	mov	w5, 0
	.loc 1 209 0
	add	x29, sp, 0
	.cfi_def_cfa_register 29
	.loc 1 210 0
	mov	w3, w4
.LVL45:
	mov	w4, 0
.LVL46:
	.loc 1 209 0
	.loc 1 210 0
	bl	sp_hacc_internal.isra.0
.LVL47:
	.loc 1 211 0
	ldp	x29, x30, [sp], 16
	.cfi_restore 30
	.cfi_restore 29
	.cfi_def_cfa 31, 0
	ret
	.cfi_endproc
.LFE446:
	.size	masp_hal_sp_hacc_dec, .-masp_hal_sp_hacc_dec
	.align	2
	.global	masp_hal_sp_hacc_blk_sz
	.type	masp_hal_sp_hacc_blk_sz, %function
masp_hal_sp_hacc_blk_sz:
.LFB447:
	.loc 1 217 0
	.cfi_startproc
	.loc 1 219 0
	mov	w0, 16
	ret
	.cfi_endproc
.LFE447:
	.size	masp_hal_sp_hacc_blk_sz, .-masp_hal_sp_hacc_blk_sz
	.align	2
	.global	masp_hal_sp_hacc_init
	.type	masp_hal_sp_hacc_init, %function
masp_hal_sp_hacc_init:
.LFB448:
	.loc 1 225 0
	.cfi_startproc
.LVL48:
	stp	x29, x30, [sp, -96]!
	.cfi_def_cfa_offset 96
	.cfi_offset 29, -96
	.cfi_offset 30, -88
	.loc 1 229 0
	cmp	w1, 16
	.loc 1 225 0
	mov	x1, x0
.LVL49:
	add	x29, sp, 0
	.cfi_def_cfa_register 29
	stp	x19, x20, [sp,16]
	stp	x21, x22, [sp,32]
	.cfi_offset 19, -80
	.cfi_offset 20, -72
	.cfi_offset 21, -64
	.cfi_offset 22, -56
	.loc 1 231 0
	mov	w0, 24580
.LVL50:
	.loc 1 229 0
	beq	.L35
.L33:
	.loc 1 244 0
	ldp	x19, x20, [sp,16]
	.cfi_remember_state
	.cfi_restore 20
	.cfi_restore 19
	ldp	x21, x22, [sp,32]
	.cfi_restore 22
	.cfi_restore 21
	ldp	x29, x30, [sp], 96
	.cfi_restore 30
	.cfi_restore 29
	.cfi_def_cfa 31, 0
	ret
.L35:
	.cfi_restore_state
	mov	x5, x1
.LVL51:
	.loc 1 237 0
	ldrb	w1, [x1]
	strb	w1, [x29,60]
	.loc 1 234 0
	mov	w13, 32
	.loc 1 238 0
	add	w22, w1, 1
	.loc 1 234 0
	str	w13, [x29,56]
	.loc 1 237 0
	ldrb	w2, [x5,1]
	ldrb	w3, [x5,2]
	ldrb	w0, [x5,3]
	.loc 1 238 0
	add	w21, w2, 1
	.loc 1 237 0
	ldrb	w12, [x5,4]
	.loc 1 238 0
	add	w4, w3, 1
	.loc 1 237 0
	ldrb	w11, [x5,5]
	.loc 1 238 0
	add	w20, w0, 1
	.loc 1 237 0
	ldrb	w10, [x5,6]
	.loc 1 238 0
	add	w19, w12, 1
	.loc 1 237 0
	ldrb	w9, [x5,7]
	.loc 1 238 0
	add	w18, w11, 1
	.loc 1 237 0
	ldrb	w8, [x5,8]
	.loc 1 238 0
	add	w17, w10, 1
	.loc 1 237 0
	ldrb	w7, [x5,9]
	.loc 1 238 0
	add	w16, w9, 1
	.loc 1 237 0
	ldrb	w6, [x5,10]
	.loc 1 238 0
	add	w15, w8, 1
	add	w14, w7, 1
	.loc 1 237 0
	strb	w2, [x29,61]
	strb	w3, [x29,62]
	.loc 1 238 0
	add	w13, w6, 1
	strb	w4, [x29,89]
	.loc 1 241 0 discriminator 1
	mov	w4, w0
	.loc 1 237 0
	strb	w0, [x29,63]
	.loc 1 241 0 discriminator 1
	adrp	x0, .LC5
	.loc 1 237 0
	strb	w12, [x29,64]
	.loc 1 241 0 discriminator 1
	add	x0, x0, :lo12:.LC5
	.loc 1 237 0
	strb	w11, [x29,65]
	.loc 1 238 0
	strb	w18, [x29,86]
	.loc 1 237 0
	strb	w10, [x29,66]
	.loc 1 238 0
	strb	w17, [x29,85]
	.loc 1 237 0
	strb	w9, [x29,67]
	.loc 1 238 0
	strb	w16, [x29,84]
	.loc 1 237 0
	strb	w8, [x29,68]
	.loc 1 238 0
	strb	w15, [x29,83]
	.loc 1 237 0
	strb	w7, [x29,69]
	.loc 1 238 0
	strb	w14, [x29,82]
	.loc 1 237 0
	strb	w6, [x29,70]
	.loc 1 238 0
	strb	w22, [x29,91]
	strb	w21, [x29,90]
	strb	w20, [x29,88]
	strb	w19, [x29,87]
	strb	w13, [x29,81]
	.loc 1 237 0
	ldrb	w9, [x5,11]
	ldrb	w8, [x5,12]
	ldrb	w7, [x5,13]
	.loc 1 238 0
	add	w13, w9, 1
	.loc 1 237 0
	ldrb	w6, [x5,14]
	.loc 1 238 0
	add	w12, w8, 1
	.loc 1 237 0
	ldrb	w5, [x5,15]
.LVL52:
	.loc 1 238 0
	add	w11, w7, 1
	add	w10, w6, 1
	.loc 1 237 0
	strb	w9, [x29,71]
	.loc 1 238 0
	add	w9, w5, 1
	strb	w13, [x29,80]
	.loc 1 237 0
	strb	w8, [x29,72]
	.loc 1 238 0
	strb	w12, [x29,79]
	.loc 1 237 0
	strb	w7, [x29,73]
	.loc 1 238 0
	strb	w11, [x29,78]
	.loc 1 237 0
	strb	w6, [x29,74]
	.loc 1 238 0
	strb	w10, [x29,77]
	.loc 1 237 0
	strb	w5, [x29,75]
	.loc 1 238 0
	strb	w9, [x29,76]
	.loc 1 241 0 discriminator 1
	bl	printk
.LVL53:
	.loc 1 243 0
	add	x0, x29, 56
	bl	hacc_init
.LVL54:
	b	.L33
	.cfi_endproc
.LFE448:
	.size	masp_hal_sp_hacc_init, .-masp_hal_sp_hacc_init
	.global	bHACC_SWKeyInit
	.global	bHACC_HWWrapKeyInit
	.section	.rodata
	.align	3
.LANCHOR0 = . + 0
	.type	g_HACC_CFG_1, %object
	.size	g_HACC_CFG_1, 32
g_HACC_CFG_1:
	.word	-1630272512
	.word	15238305
	.word	-470776899
	.word	793669002
	.word	-8155556
	.word	-381640477
	.word	-1924272954
	.word	1174145417
	.type	g_HACC_CFG_2, %object
	.size	g_HACC_CFG_2, 32
g_HACC_CFG_2:
	.word	-1437324070
	.word	1431445780
	.word	-470776899
	.word	1431445780
	.word	-1437324070
	.word	-1437324070
	.word	1431445780
	.word	-1437324070
	.type	g_HACC_CFG_3, %object
	.size	g_HACC_CFG_3, 32
g_HACC_CFG_3:
	.word	646231696
	.word	-345528130
	.word	-1592585140
	.word	393941525
	.word	378269286
	.word	310687364
	.word	-549728710
	.word	561999778
	.type	__func__.6575, %object
	.size	__func__.6575, 17
__func__.6575:
	.string	"sp_hacc_internal"
	.section	.rodata.str1.8,"aMS",%progbits,1
	.align	3
.LC0:
	.string	"[%s] HACC Fail (0x%x)\n"
	.zero	1
.LC1:
	.string	"ASF"
	.zero	4
.LC2:
	.string	"BUG: failure at %s:%d/%s()!\n"
	.zero	3
.LC3:
	.string	"dummy"
	.zero	2
.LC4:
	.string	"BUG!"
	.zero	3
.LC5:
	.string	"0x%x,0x%x,0x%x,0x%x\n"
	.bss
.LANCHOR1 = . + 0
	.type	bHACC_HWWrapKeyInit, %object
	.size	bHACC_HWWrapKeyInit, 1
bHACC_HWWrapKeyInit:
	.zero	1
	.type	bHACC_SWKeyInit, %object
	.size	bHACC_SWKeyInit, 1
bHACC_SWKeyInit:
	.zero	1
	.text
.Letext0:
	.file 2 "dummy"
	.file 3 "dummy"
	.file 4 "dummy"
	.file 5 "dummy"
	.file 6 "dummy"
	.file 7 "dummy"
	.file 8 "dummy"
	.file 9 "dummy"
	.file 10 "dummy"
	.file 11 "dummy"
	.file 12 "dummy"
	.file 13 "dummy"
	.file 14 "dummy"
	.section	.note.GNU-stack,"",%progbits
