	.cpu generic+fp+simd
	.file	"hacc_hk.c"
	.text
.Ltext0:
	.cfi_sections	.debug_frame
	.align	2
	.global	HACC_V3_Init
	.type	HACC_V3_Init, %function
HACC_V3_Init:
.LFB444:
	.file 1 "dummy"
	.loc 1 63 0
	.cfi_startproc
.LVL0:
	stp	x29, x30, [sp, -48]!
	.cfi_def_cfa_offset 48
	.cfi_offset 29, -48
	.cfi_offset 30, -40
	add	x29, sp, 0
	.cfi_def_cfa_register 29
	str	x19, [sp,16]
	.cfi_offset 19, -32
	.loc 1 63 0
	and	w19, w0, (1 << 8) - 1
.LVL1:
	str	x1, [x29,40]
	.loc 1 73 0
	bl	masp_hal_secure_algo_init
.LVL2:
	.loc 1 105 0
	adrp	x2, hacc_base
	.loc 1 95 0
	mov	w3, 2
	.loc 1 126 0
	ldr	x1, [x29,40]
.LVL3:
	.loc 1 95 0
	cmp	w19, wzr
	mov	w6, 3
	adrp	x4, .LANCHOR0
	ldr	x5, [x2,#:lo12:hacc_base]
	csel	w6, w6, w3, ne
.LVL4:
	add	x4, x4, :lo12:.LANCHOR0
	.loc 1 139 0
	mov	w7, 1
	add	x8, x4, 48
	.loc 1 105 0
	str	wzr, [x5,32]
	.loc 1 115 0
	mov	w5, 16
	.loc 1 105 0
	ldr	x0, [x2,#:lo12:hacc_base]
	str	wzr, [x0,36]
	ldr	x0, [x2,#:lo12:hacc_base]
	str	wzr, [x0,40]
	ldr	x0, [x2,#:lo12:hacc_base]
	str	wzr, [x0,44]
	ldr	x0, [x2,#:lo12:hacc_base]
	str	wzr, [x0,48]
	ldr	x0, [x2,#:lo12:hacc_base]
	str	wzr, [x0,52]
	ldr	x0, [x2,#:lo12:hacc_base]
	str	wzr, [x0,56]
	ldr	x0, [x2,#:lo12:hacc_base]
	str	wzr, [x0,60]
	.loc 1 111 0
	ldr	x0, [x2,#:lo12:hacc_base]
	str	w3, [x0,4]
	.loc 1 115 0
	ldr	x0, [x2,#:lo12:hacc_base]
	str	w5, [x0,12]
	.loc 1 117 0
	ldr	x5, [x2,#:lo12:hacc_base]
	ldr	w0, [x5,12]
	orr	w0, w0, 256
	str	w0, [x5,12]
	.loc 1 120 0
	ldr	x0, [x2,#:lo12:hacc_base]
	str	w3, [x0,8]
	ldr	x0, [x2,#:lo12:hacc_base]
	.loc 1 126 0
	ldr	w3, [x1]
	str	w3, [x0,64]
	ldr	x0, [x2,#:lo12:hacc_base]
	ldr	w3, [x1,4]
	str	w3, [x0,68]
	ldr	x0, [x2,#:lo12:hacc_base]
	ldr	w3, [x1,8]
	str	w3, [x0,72]
	ldr	x0, [x2,#:lo12:hacc_base]
	ldr	w3, [x1,12]
	str	w3, [x0,76]
	ldr	x5, [x2,#:lo12:hacc_base]
.L4:
	.loc 1 136 0
	ldr	w0, [x4]
	str	w0, [x5,16]
	ldr	x0, [x2,#:lo12:hacc_base]
	ldr	w3, [x4,4]
	str	w3, [x0,20]
	ldr	x0, [x2,#:lo12:hacc_base]
	ldr	w3, [x4,8]
	str	w3, [x0,24]
	ldr	x0, [x2,#:lo12:hacc_base]
	ldr	w3, [x4,12]
	str	w3, [x0,28]
	.loc 1 139 0
	ldr	x0, [x2,#:lo12:hacc_base]
	str	w7, [x0,8]
	ldr	x5, [x2,#:lo12:hacc_base]
	add	x3, x5, 8
.L3:
	.loc 1 141 0 discriminator 1
	ldr	w0, [x3]
	tbz	x0, 15, .L3
	add	x4, x4, 16
	.loc 1 130 0 discriminator 1
	cmp	x4, x8
	bne	.L4
	.loc 1 150 0
	mov	w0, 2
	str	w0, [x3]
	ldr	x0, [x2,#:lo12:hacc_base]
	.loc 1 156 0
	ldr	w3, [x1]
	str	w3, [x0,64]
	ldr	x0, [x2,#:lo12:hacc_base]
	ldr	w3, [x1,4]
	str	w3, [x0,68]
	ldr	x0, [x2,#:lo12:hacc_base]
	ldr	w3, [x1,8]
	str	w3, [x0,72]
	ldr	x0, [x2,#:lo12:hacc_base]
	ldr	w1, [x1,12]
.LVL5:
	str	w1, [x0,76]
	.loc 1 160 0
	ldr	x0, [x2,#:lo12:hacc_base]
	str	w6, [x0,4]
	.loc 1 161 0
	ldr	x0, [x2,#:lo12:hacc_base]
	str	wzr, [x0,12]
	.loc 1 162 0
	ldr	x19, [sp,16]
	.cfi_restore 19
.LVL6:
	ldp	x29, x30, [sp], 48
	.cfi_restore 30
	.cfi_restore 29
	.cfi_def_cfa 31, 0
	ret
	.cfi_endproc
.LFE444:
	.size	HACC_V3_Init, .-HACC_V3_Init
	.align	2
	.global	HACC_V3_Run
	.type	HACC_V3_Run, %function
HACC_V3_Run:
.LFB445:
	.loc 1 165 0
	.cfi_startproc
.LVL7:
	.loc 1 172 0 discriminator 1
	mov	x6, x2
	adrp	x5, hacc_base
	.loc 1 180 0
	mov	w8, 1
	.loc 1 172 0 discriminator 1
	cbz	w1, .L10
.LVL8:
.L16:
	ldr	x3, [x5,#:lo12:hacc_base]
.LVL9:
	.loc 1 177 0
	ldr	w4, [x0]
	str	w4, [x3,16]
	ldr	x3, [x5,#:lo12:hacc_base]
	ldr	w4, [x0,4]
	str	w4, [x3,20]
	ldr	x3, [x5,#:lo12:hacc_base]
	ldr	w4, [x0,8]
	str	w4, [x3,24]
	ldr	x3, [x5,#:lo12:hacc_base]
	ldr	w4, [x0,12]
	str	w4, [x3,28]
	.loc 1 180 0
	ldr	x3, [x5,#:lo12:hacc_base]
	str	w8, [x3,8]
	ldr	x7, [x5,#:lo12:hacc_base]
	add	x4, x7, 8
.L12:
	.loc 1 182 0 discriminator 1
	ldr	w3, [x4]
	tbz	x3, 15, .L12
	.loc 1 172 0 discriminator 2
	add	x6, x6, 16
	.loc 1 186 0
	ldr	w3, [x7,80]
	.loc 1 172 0 discriminator 2
	add	x0, x0, 16
	.loc 1 186 0
	str	w3, [x6,-16]
	ldr	x3, [x5,#:lo12:hacc_base]
	ldr	w3, [x3,84]
	str	w3, [x6,-12]
	ldr	x3, [x5,#:lo12:hacc_base]
	ldr	w4, [x3,88]
	str	w4, [x6,-8]
	ldr	w3, [x3,92]
	str	w3, [x6,-4]
.LVL10:
	sub	w3, w6, w2
.LVL11:
	.loc 1 172 0 discriminator 1
	cmp	w1, w3
	bhi	.L16
.L10:
	.loc 1 189 0
	ret
	.cfi_endproc
.LFE445:
	.size	HACC_V3_Run, .-HACC_V3_Run
	.align	2
	.global	HACC_V3_Terminate
	.type	HACC_V3_Terminate, %function
HACC_V3_Terminate:
.LFB446:
	.loc 1 192 0
	.cfi_startproc
	.loc 1 196 0
	adrp	x0, hacc_base
	mov	w2, 2
	.loc 1 192 0
	stp	x29, x30, [sp, -16]!
	.cfi_def_cfa_offset 16
	.cfi_offset 29, -16
	.cfi_offset 30, -8
	add	x29, sp, 0
	.cfi_def_cfa_register 29
	.loc 1 196 0
	ldr	x1, [x0,#:lo12:hacc_base]
	str	w2, [x1,8]
	ldr	x1, [x0,#:lo12:hacc_base]
	.loc 1 204 0
	str	wzr, [x1,32]
	ldr	x1, [x0,#:lo12:hacc_base]
	str	wzr, [x1,36]
	ldr	x1, [x0,#:lo12:hacc_base]
	str	wzr, [x1,40]
	ldr	x1, [x0,#:lo12:hacc_base]
	str	wzr, [x1,44]
	ldr	x1, [x0,#:lo12:hacc_base]
	str	wzr, [x1,48]
	ldr	x1, [x0,#:lo12:hacc_base]
	str	wzr, [x1,52]
	ldr	x1, [x0,#:lo12:hacc_base]
	str	wzr, [x1,56]
	ldr	x0, [x0,#:lo12:hacc_base]
	str	wzr, [x0,60]
	.loc 1 207 0
	bl	masp_hal_secure_algo_deinit
.LVL12:
	.loc 1 208 0
	ldp	x29, x30, [sp], 16
	.cfi_restore 30
	.cfi_restore 29
	.cfi_def_cfa 31, 0
	ret
	.cfi_endproc
.LFE446:
	.size	HACC_V3_Terminate, .-HACC_V3_Terminate
	.section	.rodata
	.align	3
.LANCHOR0 = . + 0
	.type	g_CFG_RANDOM_PATTERN, %object
	.size	g_CFG_RANDOM_PATTERN, 48
g_CFG_RANDOM_PATTERN:
	.word	759479152
	.word	-1488661977
	.word	-794196405
	.word	-2080390588
	.word	2127046251
	.word	1139281842
	.word	27669642
	.word	543685024
	.word	1414751237
	.word	-716790095
	.word	482602042
	.word	-566789501
	.text
.Letext0:
	.file 2 "dummy"
	.file 3 "dummy"
	.file 4 "dummy"
	.file 5 "dummy"
	.file 6 "dummy"
	.file 7 "dummy"
	.file 8 "dummy"
	.file 9 "dummy"
	.file 10 "dummy"
	.file 11 "dummy"
	.file 12 "dummy"
	.section	.note.GNU-stack,"",%progbits
