	.cpu generic+fp+simd
	.file	"hacc_sk.c"
	.text
.Ltext0:
	.cfi_sections	.debug_frame
	.align	2
	.global	hacc_set_key
	.type	hacc_set_key, %function
hacc_set_key:
.LFB446:
	.file 1 "dummy"
	.loc 1 141 0
	.cfi_startproc
.LVL0:
	.loc 1 146 0
	cmp	w1, 24
	beq	.L3
	cmp	w1, 32
	beq	.L4
	cmp	w1, 16
	beq	.L15
	.loc 1 158 0
	mov	w0, 24578
.LVL1:
	.loc 1 198 0
	ret
.LVL2:
.L15:
	.loc 1 149 0
	mov	w6, 0
.LVL3:
.L5:
	.loc 1 164 0
	adrp	x3, hacc_base
	.loc 1 161 0
	adrp	x2, .LANCHOR0
	add	x2, x2, :lo12:.LANCHOR0
.LBB8:
.LBB9:
	.loc 1 172 0
	cmp	w0, 1
.LBE9:
.LBE8:
	.loc 1 164 0
	ldr	x5, [x3,#:lo12:hacc_base]
	.loc 1 161 0
	str	w1, [x2,16]
	.loc 1 164 0
	ldr	w4, [x5,4]
	and	w4, w4, -49
	str	w4, [x5,4]
	.loc 1 165 0
	ldr	x4, [x3,#:lo12:hacc_base]
	ldr	w1, [x4,4]
.LVL4:
	orr	w1, w6, w1
	str	w1, [x4,4]
.LBB12:
.LBB10:
	.loc 1 169 0
	ldr	x1, [x3,#:lo12:hacc_base]
	str	wzr, [x1,32]
	ldr	x1, [x3,#:lo12:hacc_base]
	str	wzr, [x1,36]
	ldr	x1, [x3,#:lo12:hacc_base]
	str	wzr, [x1,40]
	ldr	x1, [x3,#:lo12:hacc_base]
	str	wzr, [x1,44]
	ldr	x1, [x3,#:lo12:hacc_base]
	str	wzr, [x1,48]
	ldr	x1, [x3,#:lo12:hacc_base]
	str	wzr, [x1,52]
	ldr	x1, [x3,#:lo12:hacc_base]
	str	wzr, [x1,56]
	ldr	x1, [x3,#:lo12:hacc_base]
	str	wzr, [x1,60]
	.loc 1 172 0
	beq	.L7
	.loc 1 187 0
	ldr	x4, [x3,#:lo12:hacc_base]
	.loc 1 182 0
	cmp	w0, 2
	add	x1, x2, 20
	add	x2, x2, 52
	csel	x1, x2, x1, eq
.LVL5:
	.loc 1 194 0
	mov	w0, 0
.LVL6:
	.loc 1 187 0
	ldr	w2, [x4,12]
	and	w2, w2, -17
	str	w2, [x4,12]
	.loc 1 192 0
	ldrb	w2, [x1,1]
	ldrb	w6, [x1]
.LVL7:
	.loc 1 193 0
	ldrb	w5, [x1,3]
	ldrb	w4, [x1,2]
	.loc 1 192 0
	lsl	w2, w2, 16
	.loc 1 194 0
	ldr	x7, [x3,#:lo12:hacc_base]
	orr	w2, w2, w6, lsl 24
	orr	w2, w2, w5
	.loc 1 193 0
	orr	w2, w2, w4, lsl 8
	.loc 1 194 0
	str	w2, [x7,32]
	.loc 1 192 0
	ldrb	w2, [x1,5]
	ldrb	w6, [x1,4]
	.loc 1 193 0
	ldrb	w5, [x1,7]
	ldrb	w4, [x1,6]
	.loc 1 192 0
	lsl	w2, w2, 16
	.loc 1 194 0
	ldr	x7, [x3,#:lo12:hacc_base]
	orr	w2, w2, w6, lsl 24
	orr	w2, w2, w5
	.loc 1 193 0
	orr	w2, w2, w4, lsl 8
	.loc 1 194 0
	str	w2, [x7,36]
	.loc 1 192 0
	ldrb	w2, [x1,9]
	ldrb	w6, [x1,8]
	.loc 1 193 0
	ldrb	w5, [x1,11]
	ldrb	w4, [x1,10]
	.loc 1 192 0
	lsl	w2, w2, 16
	.loc 1 194 0
	ldr	x7, [x3,#:lo12:hacc_base]
	orr	w2, w2, w6, lsl 24
	orr	w2, w2, w5
	.loc 1 193 0
	orr	w2, w2, w4, lsl 8
	.loc 1 194 0
	str	w2, [x7,40]
	.loc 1 192 0
	ldrb	w2, [x1,13]
	ldrb	w6, [x1,12]
	.loc 1 193 0
	ldrb	w5, [x1,15]
	ldrb	w4, [x1,14]
	.loc 1 192 0
	lsl	w2, w2, 16
	.loc 1 194 0
	ldr	x7, [x3,#:lo12:hacc_base]
	orr	w2, w2, w6, lsl 24
	orr	w2, w2, w5
	.loc 1 193 0
	orr	w2, w2, w4, lsl 8
	.loc 1 194 0
	str	w2, [x7,44]
	.loc 1 192 0
	ldrb	w2, [x1,17]
	ldrb	w6, [x1,16]
	.loc 1 193 0
	ldrb	w5, [x1,19]
	ldrb	w4, [x1,18]
	.loc 1 192 0
	lsl	w2, w2, 16
	.loc 1 194 0
	ldr	x7, [x3,#:lo12:hacc_base]
	orr	w2, w2, w6, lsl 24
	orr	w2, w2, w5
	.loc 1 193 0
	orr	w2, w2, w4, lsl 8
	.loc 1 194 0
	str	w2, [x7,48]
	.loc 1 192 0
	ldrb	w6, [x1,20]
	ldrb	w2, [x1,21]
	.loc 1 193 0
	ldrb	w5, [x1,23]
	ldrb	w4, [x1,22]
	.loc 1 194 0
	ldr	x7, [x3,#:lo12:hacc_base]
	.loc 1 192 0
	lsl	w2, w2, 16
	orr	w2, w2, w6, lsl 24
	orr	w2, w2, w5
	.loc 1 193 0
	orr	w2, w2, w4, lsl 8
	.loc 1 194 0
	str	w2, [x7,52]
	.loc 1 192 0
	ldrb	w2, [x1,25]
	ldrb	w6, [x1,24]
	.loc 1 193 0
	ldrb	w5, [x1,27]
	ldrb	w4, [x1,26]
	.loc 1 192 0
	lsl	w2, w2, 16
	.loc 1 194 0
	ldr	x7, [x3,#:lo12:hacc_base]
	orr	w2, w2, w6, lsl 24
	orr	w2, w2, w5
	.loc 1 193 0
	orr	w2, w2, w4, lsl 8
	.loc 1 194 0
	str	w2, [x7,56]
	.loc 1 192 0
	ldrb	w6, [x1,29]
	ldrb	w5, [x1,28]
	.loc 1 193 0
	ldrb	w4, [x1,31]
	ldrb	w2, [x1,30]
	.loc 1 192 0
	lsl	w1, w6, 16
.LVL8:
	.loc 1 194 0
	ldr	x3, [x3,#:lo12:hacc_base]
	orr	w1, w1, w5, lsl 24
	orr	w1, w1, w4
	.loc 1 193 0
	orr	w1, w1, w2, lsl 8
	.loc 1 194 0
	str	w1, [x3,60]
.LBE10:
.LBE12:
	.loc 1 198 0
	ret
.LVL9:
.L4:
	.loc 1 155 0
	mov	w6, 32
.LVL10:
	.loc 1 156 0
	b	.L5
.LVL11:
.L3:
	.loc 1 152 0
	mov	w6, 16
.LVL12:
	b	.L5
.LVL13:
.L7:
.LBB13:
.LBB11:
	.loc 1 175 0
	ldr	x2, [x3,#:lo12:hacc_base]
	mov	w0, 0
.LVL14:
	ldr	w1, [x2,12]
	orr	w1, w1, 16
	str	w1, [x2,12]
.LBE11:
.LBE13:
	.loc 1 198 0
	ret
	.cfi_endproc
.LFE446:
	.size	hacc_set_key, .-hacc_set_key
	.align	2
	.global	hacc_do_aes
	.type	hacc_do_aes, %function
hacc_do_aes:
.LFB447:
	.loc 1 201 0
	.cfi_startproc
.LVL15:
	stp	x29, x30, [sp, -16]!
	.cfi_def_cfa_offset 16
	.cfi_offset 29, -16
	.cfi_offset 30, -8
	mov	w5, w0
	.loc 1 206 0
	ands	w0, w3, 15
.LVL16:
	.loc 1 201 0
	add	x29, sp, 0
	.cfi_def_cfa_register 29
	.loc 1 206 0
	bne	.L29
	.loc 1 215 0
	adrp	x6, hacc_base
	.loc 1 223 0
	cmp	w5, 1
	.loc 1 220 0
	adrp	x4, .LANCHOR0
	add	x4, x4, :lo12:.LANCHOR0
	.loc 1 215 0
	ldr	x7, [x6,#:lo12:hacc_base]
	ldr	w5, [x7,8]
.LVL17:
	orr	w5, w5, 2
	str	w5, [x7,8]
	.loc 1 220 0
	ldr	x5, [x6,#:lo12:hacc_base]
	ldr	w7, [x4]
	str	w7, [x5,64]
	ldr	x5, [x6,#:lo12:hacc_base]
	ldr	w7, [x4,4]
	str	w7, [x5,68]
	ldr	x5, [x6,#:lo12:hacc_base]
	ldr	w7, [x4,8]
	str	w7, [x5,72]
	ldr	x5, [x6,#:lo12:hacc_base]
	ldr	w4, [x4,12]
	str	w4, [x5,76]
	.loc 1 225 0
	ldr	x5, [x6,#:lo12:hacc_base]
	ldr	w4, [x5,4]
	.loc 1 223 0
	beq	.L30
	.loc 1 229 0
	and	w4, w4, -2
	str	w4, [x5,4]
.L22:
	add	x1, x1, 16
	ldr	x4, [x6,#:lo12:hacc_base]
	.loc 1 239 0
	ldr	w5, [x1,-16]
	str	w5, [x4,16]
	ldr	x4, [x6,#:lo12:hacc_base]
	ldr	w5, [x1,-12]
	str	w5, [x4,20]
	ldr	x4, [x6,#:lo12:hacc_base]
	ldr	w5, [x1,-8]
	str	w5, [x4,24]
	ldr	x4, [x6,#:lo12:hacc_base]
	ldr	w5, [x1,-4]
	str	w5, [x4,28]
	.loc 1 242 0
	ldr	x5, [x6,#:lo12:hacc_base]
	ldr	w4, [x5,8]
	orr	w4, w4, 1
	str	w4, [x5,8]
	ldr	x7, [x6,#:lo12:hacc_base]
	add	x5, x7, 8
.L21:
	.loc 1 245 0 discriminator 1
	ldr	w4, [x5]
	tbz	x4, 15, .L21
	add	x2, x2, 16
	.loc 1 249 0
	ldr	w4, [x7,80]
	str	w4, [x2,-16]
	ldr	x4, [x6,#:lo12:hacc_base]
	ldr	w4, [x4,84]
	str	w4, [x2,-12]
	ldr	x4, [x6,#:lo12:hacc_base]
	ldr	w4, [x4,88]
	str	w4, [x2,-8]
	ldr	x4, [x6,#:lo12:hacc_base]
	ldr	w4, [x4,92]
	str	w4, [x2,-4]
	.loc 1 251 0
	cbz	w3, .L18
	.loc 1 256 0
	subs	w3, w3, #16
	bne	.L22
.L18:
	.loc 1 261 0
	ldp	x29, x30, [sp], 16
	.cfi_remember_state
	.cfi_restore 30
	.cfi_restore 29
	.cfi_def_cfa 31, 0
	ret
.L30:
	.cfi_restore_state
	.loc 1 225 0
	orr	w4, w4, 1
	str	w4, [x5,4]
	b	.L22
.LVL18:
.L29:
	.loc 1 208 0
	adrp	x0, .LC0
	adrp	x1, .LC1
.LVL19:
	mov	w2, w3
.LVL20:
	add	x0, x0, :lo12:.LC0
	add	x1, x1, :lo12:.LC1
	mov	w3, 16
.LVL21:
	bl	printk
.LVL22:
	.loc 1 209 0
	mov	w0, 24579
	b	.L18
	.cfi_endproc
.LFE447:
	.size	hacc_do_aes, .-hacc_do_aes
	.align	2
	.global	hacc_deinit
	.type	hacc_deinit, %function
hacc_deinit:
.LFB448:
	.loc 1 264 0
	.cfi_startproc
	.loc 1 268 0
	adrp	x1, hacc_base
	.loc 1 271 0
	mov	w0, 0
	.loc 1 268 0
	ldr	x2, [x1,#:lo12:hacc_base]
	ldr	w1, [x2,8]
	orr	w1, w1, 2
	str	w1, [x2,8]
	.loc 1 271 0
	ret
	.cfi_endproc
.LFE448:
	.size	hacc_deinit, .-hacc_deinit
	.align	2
	.global	hacc_init
	.type	hacc_init, %function
hacc_init:
.LFB449:
	.loc 1 274 0
	.cfi_startproc
.LVL23:
.LBB20:
.LBB21:
	.loc 1 268 0
	adrp	x7, hacc_base
.LBE21:
.LBE20:
	.loc 1 294 0 discriminator 1
	mov	x1, 0
	.loc 1 274 0
	stp	x29, x30, [sp, -32]!
	.cfi_def_cfa_offset 32
	.cfi_offset 29, -32
	.cfi_offset 30, -24
	add	x29, sp, 0
	.cfi_def_cfa_register 29
.LBB24:
.LBB22:
	.loc 1 268 0
	ldr	x4, [x7,#:lo12:hacc_base]
.LBE22:
.LBE24:
	.loc 1 274 0
	str	x19, [sp,16]
	.cfi_offset 19, -16
	.loc 1 292 0
	adrp	x19, .LANCHOR0
	add	x2, x19, :lo12:.LANCHOR0
.LBB25:
.LBB23:
	.loc 1 268 0
	ldr	w3, [x4,8]
	mov	x6, x2
	orr	w3, w3, 2
	str	w3, [x4,8]
.LBE23:
.LBE25:
	.loc 1 285 0
	ldr	x4, [x7,#:lo12:hacc_base]
	ldr	w3, [x4,8]
	orr	w3, w3, 2
	str	w3, [x4,8]
	.loc 1 288 0
	mov	w3, -4099
	ldr	x4, [x7,#:lo12:hacc_base]
	ldr	w5, [x4,8]
	and	w3, w5, w3
	str	w3, [x4,8]
	.loc 1 289 0
	ldr	x4, [x7,#:lo12:hacc_base]
	ldr	w3, [x4,8]
	orr	w3, w3, 2
	str	w3, [x4,8]
	.loc 1 292 0
	stp	xzr, xzr, [x2]
	stp	xzr, xzr, [x2,16]
	stp	xzr, xzr, [x2,32]
	stp	xzr, xzr, [x2,48]
	stp	xzr, xzr, [x2,64]
	str	wzr, [x2,80]
	.loc 1 294 0 discriminator 1
	ldr	w2, [x0]
	cbz	w2, .L36
.L38:
	add	x5, x0, x1
	add	x4, x6, x1
	add	w3, w1, 1
	add	x1, x1, 1
	.loc 1 296 0
	ldrb	w5, [x5,4]
	strb	w5, [x4,20]
	.loc 1 294 0 discriminator 1
	ldr	w4, [x0]
	cmp	w4, w3
	bhi	.L38
.L36:
	.loc 1 301 0
	add	x19, x19, :lo12:.LANCHOR0
.LBB26:
.LBB27:
	.loc 1 122 0
	ldr	x3, [x7,#:lo12:hacc_base]
.LBE27:
.LBE26:
	.loc 1 301 0
	mov	w4, 12887
	.loc 1 302 0
	mov	w2, 21522
	.loc 1 303 0
	mov	w0, 21522
.LVL24:
	.loc 1 304 0
	mov	w1, 12887
	.loc 1 302 0
	movk	w2, 0x6697, lsl 16
	.loc 1 303 0
	movk	w0, 0x6697, lsl 16
	.loc 1 302 0
	str	w2, [x19,4]
	.loc 1 304 0
	movk	w1, 0x5a5a, lsl 16
	.loc 1 303 0
	str	w0, [x19,8]
	.loc 1 301 0
	movk	w4, 0x5a5a, lsl 16
	.loc 1 304 0
	str	w1, [x19,12]
	.loc 1 315 0
	mov	w0, 1
	.loc 1 301 0
	str	w4, [x19]
	.loc 1 315 0
	mov	w1, 16
.LBB29:
.LBB28:
	.loc 1 122 0
	ldr	w2, [x3,4]
	and	w2, w2, -3
	str	w2, [x3,4]
	.loc 1 131 0
	ldr	x3, [x7,#:lo12:hacc_base]
	ldr	w2, [x3,4]
	orr	w2, w2, 2
	str	w2, [x3,4]
.LBE28:
.LBE29:
	.loc 1 315 0
	bl	hacc_set_key
.LVL25:
	.loc 1 316 0
	cbz	w0, .L42
.L34:
	.loc 1 338 0
	ldr	x19, [sp,16]
	.cfi_remember_state
	.cfi_restore 19
.LVL26:
	ldp	x29, x30, [sp], 32
	.cfi_restore 30
	.cfi_restore 29
	.cfi_def_cfa 31, 0
	ret
.LVL27:
.L42:
	.cfi_restore_state
	.loc 1 319 0
	mov	w0, 1
.LVL28:
	add	x1, x19, 20
	add	x2, x19, 52
	mov	w3, 32
	bl	hacc_do_aes
.LVL29:
	.loc 1 320 0
	cbnz	w0, .L34
	.loc 1 323 0
	mov	w0, 2
.LVL30:
	mov	w1, 32
	bl	hacc_set_key
.LVL31:
	.loc 1 324 0
	cbnz	w0, .L34
	.loc 1 330 0
	adrp	x2, bHACC_HWWrapKeyInit
	mov	w1, 1
	strb	w1, [x2,#:lo12:bHACC_HWWrapKeyInit]
	.loc 1 333 0
	adrp	x2, bHACC_SWKeyInit
	strb	w1, [x2,#:lo12:bHACC_SWKeyInit]
	b	.L34
	.cfi_endproc
.LFE449:
	.size	hacc_init, .-hacc_init
	.section	.rodata.str1.8,"aMS",%progbits,1
	.align	3
.LC0:
	.string	"[%s] size = %d is not %d bytes alignment\n"
	.zero	6
.LC1:
	.string	"HACC"
	.bss
	.align	3
.LANCHOR0 = . + 0
	.type	hacc_ctx, %object
	.size	hacc_ctx, 84
hacc_ctx:
	.zero	84
	.text
.Letext0:
	.file 2 "dummy"
	.file 3 "dummy"
	.file 4 "dummy"
	.file 5 "dummy"
	.file 6 "dummy"
	.file 7 "dummy"
	.file 8 "dummy"
	.file 9 "dummy"
	.file 10 "dummy"
	.file 11 "dummy"
	.section	.note.GNU-stack,"",%progbits
