	.cpu generic+fp+simd
	.file	"hacc_lib.c"
	.text
.Ltext0:
	.cfi_sections	.debug_frame
	.align	2
	.global	masp_hal_secure_algo_init
	.type	masp_hal_secure_algo_init, %function
masp_hal_secure_algo_init:
.LFB444:
	.file 1 "dummy"
	.loc 1 60 0
	.cfi_startproc
	.loc 1 64 0
	mov	w0, 1
	ret
	.cfi_endproc
.LFE444:
	.size	masp_hal_secure_algo_init, .-masp_hal_secure_algo_init
	.align	2
	.global	masp_hal_secure_algo_deinit
	.type	masp_hal_secure_algo_deinit, %function
masp_hal_secure_algo_deinit:
.LFB445:
	.loc 1 70 0
	.cfi_startproc
	.loc 1 74 0
	mov	w0, 1
	ret
	.cfi_endproc
.LFE445:
	.size	masp_hal_secure_algo_deinit, .-masp_hal_secure_algo_deinit
	.align	2
	.global	masp_hal_secure_algo
	.type	masp_hal_secure_algo, %function
masp_hal_secure_algo:
.LFB446:
	.loc 1 87 0
	.cfi_startproc
.LVL0:
	stp	x29, x30, [sp, -80]!
	.cfi_def_cfa_offset 80
	.cfi_offset 29, -80
	.cfi_offset 30, -72
	add	x29, sp, 0
	.cfi_def_cfa_register 29
	stp	x19, x20, [sp,16]
	stp	x21, x22, [sp,32]
	str	x23, [sp,48]
	.cfi_offset 19, -64
	.cfi_offset 20, -56
	.cfi_offset 21, -48
	.cfi_offset 22, -40
	.cfi_offset 23, -32
	and	w21, w0, (1 << 8) - 1
.LVL1:
	mov	x23, x1
	mov	w19, w2
	mov	x22, x3
	mov	x20, x4
.L4:
	.loc 1 96 0
	bl	osal_hacc_lock
.LVL2:
	.loc 1 97 0 discriminator 1
	cbnz	w0, .L4
	.loc 1 101 0
	mov	x0, x22
	mov	w1, 16
	bl	masp_hal_sp_hacc_init
.LVL3:
	.loc 1 103 0
	cbnz	w0, .L5
	.loc 1 113 0
	cbz	w21, .L6
	cmp	w21, 1
	bne	.L16
	.loc 1 119 0
	mov	x0, x23
.LVL4:
	mov	w1, w19
	mov	w2, 1
	mov	w3, 2
	mov	w4, 0
	bl	masp_hal_sp_hacc_enc
.LVL5:
.L8:
	.loc 1 136 0 discriminator 1
	mov	x3, 0
	cbz	w19, .L10
.LVL6:
.L13:
	.loc 1 138 0
	ldrb	w5, [x0,x3]
	strb	w5, [x20,x3]
	add	x3, x3, 1
	.loc 1 136 0 discriminator 1
	cmp	w19, w3
	bhi	.L13
.L10:
	.loc 1 142 0
	bl	osal_hacc_unlock
.LVL7:
	.loc 1 153 0
	ldr	x23, [sp,48]
	.cfi_remember_state
	.cfi_restore 23
.LVL8:
	ldp	x19, x20, [sp,16]
	.cfi_restore 20
	.cfi_restore 19
.LVL9:
	ldp	x21, x22, [sp,32]
	.cfi_restore 22
	.cfi_restore 21
.LVL10:
	ldp	x29, x30, [sp], 80
	.cfi_restore 30
	.cfi_restore 29
	.cfi_def_cfa 31, 0
	ret
.LVL11:
.L16:
	.cfi_restore_state
	.loc 1 130 0
	mov	w0, 24576
.L5:
	str	x0, [x29,72]
	.loc 1 148 0
	bl	osal_hacc_unlock
.LVL12:
	.loc 1 150 0 discriminator 1
	ldr	x0, [x29,72]
.LVL13:
	adrp	x1, .LC1
	add	x1, x1, :lo12:.LC1
	mov	w2, w0
	adrp	x0, .LC0
.LVL14:
	add	x0, x0, :lo12:.LC0
	bl	printk
.LVL15:
	.loc 1 151 0 discriminator 1
	adrp	x0, .LC2
	adrp	x1, .LC3
	adrp	x3, .LANCHOR0
	add	x0, x0, :lo12:.LC2
	add	x1, x1, :lo12:.LC3
	mov	w2, 151
	add	x3, x3, :lo12:.LANCHOR0
	bl	printk
.LVL16:
	.loc 1 151 0 is_stmt 0 discriminator 2
	adrp	x0, .LC4
	add	x0, x0, :lo12:.LC4
	bl	panic
.LVL17:
.L6:
	.loc 1 126 0 is_stmt 1
	mov	x0, x23
.LVL18:
	mov	w1, w19
	mov	w2, 1
	mov	w3, 2
	mov	w4, 0
	bl	masp_hal_sp_hacc_dec
.LVL19:
	.loc 1 127 0
	b	.L8
	.cfi_endproc
.LFE446:
	.size	masp_hal_secure_algo, .-masp_hal_secure_algo
	.section	.rodata
	.align	3
.LANCHOR0 = . + 0
	.type	__func__.5823, %object
	.size	__func__.5823, 21
__func__.5823:
	.string	"masp_hal_secure_algo"
	.section	.rodata.str1.8,"aMS",%progbits,1
	.align	3
.LC0:
	.string	"[%s] masp_hal_secure_algo error (0x%x)\n"
.LC1:
	.string	"CE"
	.zero	5
.LC2:
	.string	"BUG: failure at %s:%d/%s()!\n"
	.zero	3
.LC3:
	.string	"dummy"
	.zero	5
.LC4:
	.string	"BUG!"
	.text
.Letext0:
	.file 2 "dummy"
	.file 3 "dummy"
	.file 4 "dummy"
	.file 5 "dummy"
	.file 6 "dummy"
	.file 7 "dummy"
	.file 8 "dummy"
	.file 9 "dummy"
	.file 10 "dummy"
	.file 11 "dummy"
	.section	.note.GNU-stack,"",%progbits
